target datalayout = "e-m:e-p270:32:32-p271:32:32-p272:64:64-i64:64-i128:128-f80:128-n8:16:32:64-S128"
target triple = "x86_64-pc-linux-gnu"

%class.anon.140 = type { i8 }
%"class.clang::SourceLocation" = type { i32 }
%"struct.clang::format::WhitespaceManager::Change" = type { ptr, i8, %"class.clang::SourceRange", i32, i32, %"class.std::__cxx11::basic_string", %"class.std::__cxx11::basic_string", i8, i8, i32, i8, i8, i32, i32, i32, ptr, i32, i32 }
%"class.clang::SourceRange" = type { %"class.clang::SourceLocation", %"class.clang::SourceLocation" }
%"class.std::__cxx11::basic_string" = type { %"struct.std::__cxx11::basic_string<char>::_Alloc_hider", i64, %union.anon }
%"struct.std::__cxx11::basic_string<char>::_Alloc_hider" = type { ptr }
%union.anon = type { i64, [8 x i8] }
%"class.llvm::StringRef" = type { ptr, i64 }
%"struct.clang::format::FormatToken" = type <{ %"class.clang::Token", %"class.llvm::StringRef", %"class.std::shared_ptr", %"class.clang::SourceRange", i8, i16, i8, i32, i32, i32, i32, i32, i32, i32, i32, i32, i16, [2 x i8], i32, i32, i32, i32, i32, i32, i32, i32, i32, i32, [4 x i8], %"class.llvm::SmallVector.77", i32, i32, ptr, ptr, ptr, ptr, i8, i8, i8, i8, i8, i8, [2 x i8], %"class.llvm::SmallVector.82", %"class.std::optional", i8, [7 x i8] }>
%"class.clang::Token" = type <{ i32, i32, ptr, i16, i16, [4 x i8] }>
%"class.std::shared_ptr" = type { %"class.std::__shared_ptr" }
%"class.std::__shared_ptr" = type { ptr, %"class.std::__shared_count" }
%"class.std::__shared_count" = type { ptr }
%"class.llvm::SmallVector.77" = type { %"class.llvm::SmallVectorImpl.78", %"struct.llvm::SmallVectorStorage.81" }
%"class.llvm::SmallVectorImpl.78" = type { %"class.llvm::SmallVectorTemplateBase.79" }
%"class.llvm::SmallVectorTemplateBase.79" = type { %"class.llvm::SmallVectorTemplateCommon.80" }
%"class.llvm::SmallVectorTemplateCommon.80" = type { %"class.llvm::SmallVectorBase" }
%"class.llvm::SmallVectorBase" = type { ptr, i32, i32 }
%"struct.llvm::SmallVectorStorage.81" = type { [16 x i8] }
%"class.llvm::SmallVector.82" = type { %"class.llvm::SmallVectorImpl.83", %"struct.llvm::SmallVectorStorage.86" }
%"class.llvm::SmallVectorImpl.83" = type { %"class.llvm::SmallVectorTemplateBase.84" }
%"class.llvm::SmallVectorTemplateBase.84" = type { %"class.llvm::SmallVectorTemplateCommon.85" }
%"class.llvm::SmallVectorTemplateCommon.85" = type { %"class.llvm::SmallVectorBase" }
%"struct.llvm::SmallVectorStorage.86" = type { [8 x i8] }
%"class.std::optional" = type { %"struct.std::_Optional_base" }
%"struct.std::_Optional_base" = type { %"struct.std::_Optional_payload" }
%"struct.std::_Optional_payload" = type { %"struct.std::_Optional_payload.base", [7 x i8] }
%"struct.std::_Optional_payload.base" = type { %"struct.std::_Optional_payload_base.base" }
%"struct.std::_Optional_payload_base.base" = type <{ %"union.std::_Optional_payload_base<clang::format::MacroExpansion>::_Storage", i8 }>
%"union.std::_Optional_payload_base<clang::format::MacroExpansion>::_Storage" = type { %"struct.clang::format::MacroExpansion" }
%"struct.clang::format::MacroExpansion" = type { i32, %"class.llvm::SmallVector.88", i32, i32 }
%"class.llvm::SmallVector.88" = type { %"class.llvm::SmallVectorImpl.89", %"struct.llvm::SmallVectorStorage.92" }
%"class.llvm::SmallVectorImpl.89" = type { %"class.llvm::SmallVectorTemplateBase.90" }
%"class.llvm::SmallVectorTemplateBase.90" = type { %"class.llvm::SmallVectorTemplateCommon.91" }
%"class.llvm::SmallVectorTemplateCommon.91" = type { %"class.llvm::SmallVectorBase" }
%"struct.llvm::SmallVectorStorage.92" = type { [8 x i8] }
%"class.clang::format::WhitespaceManager" = type <{ %"class.llvm::SmallVector.94", ptr, %"class.clang::tooling::Replacements", ptr, i8, [7 x i8] }>
%"class.llvm::SmallVector.94" = type { %"class.llvm::SmallVectorImpl.95", %"struct.llvm::SmallVectorStorage.98" }
%"class.llvm::SmallVectorImpl.95" = type { %"class.llvm::SmallVectorTemplateBase.96" }
%"class.llvm::SmallVectorTemplateBase.96" = type { %"class.llvm::SmallVectorTemplateCommon.97" }
%"class.llvm::SmallVectorTemplateCommon.97" = type { %"class.llvm::SmallVectorBase" }
%"struct.llvm::SmallVectorStorage.98" = type { [2176 x i8] }
%"class.clang::tooling::Replacements" = type { %"class.std::set" }
%"class.std::set" = type { %"class.std::_Rb_tree" }
%"class.std::_Rb_tree" = type { %"struct.std::_Rb_tree<clang::tooling::Replacement, clang::tooling::Replacement, std::_Identity<clang::tooling::Replacement>, std::less<clang::tooling::Replacement>>::_Rb_tree_impl" }
%"struct.std::_Rb_tree<clang::tooling::Replacement, clang::tooling::Replacement, std::_Identity<clang::tooling::Replacement>, std::less<clang::tooling::Replacement>>::_Rb_tree_impl" = type { [8 x i8], %"struct.std::_Rb_tree_header" }
%"struct.std::_Rb_tree_header" = type { %"struct.std::_Rb_tree_node_base", i64 }
%"struct.std::_Rb_tree_node_base" = type { i32, ptr, ptr, ptr }
%class.anon.142 = type { ptr }

@_ZZN5clang6format17WhitespaceManager24alignChainedConditionalsEvE19AlignWrappedOperand = internal global %class.anon.140 undef, align 1

; Function Attrs: mustprogress nounwind uwtable
define linkonce_odr hidden noundef ptr @_ZNK4llvm25SmallVectorTemplateCommonIN5clang4prec5LevelEvE5beginEv(ptr noundef nonnull align 8 dereferenceable(16) %0) #0 comdat align 2 {
  %2 = alloca ptr, align 8
  store ptr %0, ptr %2, align 8
  %3 = load ptr, ptr %2, align 8
  %4 = getelementptr inbounds nuw %"class.llvm::SmallVectorBase", ptr %3, i32 0, i32 0
  %5 = load ptr, ptr %4, align 8
  ret ptr %5
}

; Function Attrs: mustprogress nounwind uwtable
define linkonce_odr hidden noundef ptr @_ZNK4llvm25SmallVectorTemplateCommonIN5clang4prec5LevelEvE3endEv(ptr noundef nonnull align 8 dereferenceable(16) %0) #0 comdat align 2 {
  %2 = alloca ptr, align 8
  store ptr %0, ptr %2, align 8
  %3 = load ptr, ptr %2, align 8
  %4 = call noundef ptr @_ZNK4llvm25SmallVectorTemplateCommonIN5clang4prec5LevelEvE5beginEv(ptr noundef nonnull align 8 dereferenceable(16) %3)
  %5 = call noundef i64 @_ZNK4llvm15SmallVectorBaseIjE4sizeEv(ptr noundef nonnull align 8 dereferenceable(16) %3)
  %6 = getelementptr inbounds i32, ptr %4, i64 %5
  ret ptr %6
}

; Function Attrs: mustprogress nounwind uwtable
define linkonce_odr hidden noundef ptr @_ZN4llvm25SmallVectorTemplateCommonIN5clang6format17WhitespaceManager6ChangeEvE5beginEv(ptr noundef nonnull align 8 dereferenceable(16) %0) #0 comdat align 2 {
  %2 = alloca ptr, align 8
  store ptr %0, ptr %2, align 8
  %3 = load ptr, ptr %2, align 8
  %4 = getelementptr inbounds nuw %"class.llvm::SmallVectorBase", ptr %3, i32 0, i32 0
  %5 = load ptr, ptr %4, align 8
  ret ptr %5
}

; Function Attrs: mustprogress nounwind uwtable
define linkonce_odr hidden noundef nonnull align 4 dereferenceable(4) ptr @_ZNK4llvm25SmallVectorTemplateCommonIN5clang4prec5LevelEvE4backEv(ptr noundef nonnull align 8 dereferenceable(16) %0) #0 comdat align 2 {
  %2 = alloca ptr, align 8
  store ptr %0, ptr %2, align 8
  %3 = load ptr, ptr %2, align 8
  %4 = call noundef ptr @_ZNK4llvm25SmallVectorTemplateCommonIN5clang4prec5LevelEvE3endEv(ptr noundef nonnull align 8 dereferenceable(16) %3)
  %5 = getelementptr inbounds i32, ptr %4, i64 -1
  ret ptr %5
}

; Function Attrs: mustprogress nounwind uwtable
define linkonce_odr hidden noundef ptr @_ZNK5clang6format11FormatToken21getPreviousNonCommentEv(ptr noundef nonnull align 8 dereferenceable(305) %0) #0 comdat align 2 {
  %2 = alloca ptr, align 8
  %3 = alloca ptr, align 8
  store ptr %0, ptr %2, align 8
  %4 = load ptr, ptr %2, align 8
  %5 = getelementptr inbounds nuw %"struct.clang::format::FormatToken", ptr %4, i32 0, i32 34
  %6 = load ptr, ptr %5, align 8
  store ptr %6, ptr %3, align 8
  br label %7

7:                                                ; preds = %15, %1
  %8 = load ptr, ptr %3, align 8
  %9 = icmp ne ptr %8, null
  br i1 %9, label %10, label %13

10:                                               ; preds = %7
  %11 = load ptr, ptr %3, align 8
  %12 = call noundef zeroext i1 @_ZNK5clang6format11FormatToken2isENS_3tok9TokenKindE(ptr noundef nonnull align 8 dereferenceable(305) %11, i16 noundef zeroext 4)
  br label %13

13:                                               ; preds = %10, %7
  %14 = phi i1 [ false, %7 ], [ %12, %10 ]
  br i1 %14, label %15, label %19

15:                                               ; preds = %13
  %16 = load ptr, ptr %3, align 8
  %17 = getelementptr inbounds nuw %"struct.clang::format::FormatToken", ptr %16, i32 0, i32 34
  %18 = load ptr, ptr %17, align 8
  store ptr %18, ptr %3, align 8
  br label %7, !llvm.loop !56

19:                                               ; preds = %13
  %20 = load ptr, ptr %3, align 8
  ret ptr %20
}

; Function Attrs: mustprogress nounwind uwtable
define linkonce_odr hidden noundef ptr @_ZN4llvm25SmallVectorTemplateCommonIN5clang6format17WhitespaceManager6ChangeEvE3endEv(ptr noundef nonnull align 8 dereferenceable(16) %0) #0 comdat align 2 {
  %2 = alloca ptr, align 8
  store ptr %0, ptr %2, align 8
  %3 = load ptr, ptr %2, align 8
  %4 = call noundef ptr @_ZN4llvm25SmallVectorTemplateCommonIN5clang6format17WhitespaceManager6ChangeEvE5beginEv(ptr noundef nonnull align 8 dereferenceable(16) %3)
  %5 = call noundef i64 @_ZNK4llvm15SmallVectorBaseIjE4sizeEv(ptr noundef nonnull align 8 dereferenceable(16) %3)
  %6 = getelementptr inbounds %"struct.clang::format::WhitespaceManager::Change", ptr %4, i64 %5
  ret ptr %6
}

; Function Attrs: mustprogress nounwind uwtable
define linkonce_odr hidden noundef zeroext i1 @_ZNK5clang5Token2isENS_3tok9TokenKindE(ptr noundef nonnull align 8 dereferenceable(20) %0, i16 noundef zeroext %1) #0 comdat align 2 {
  %3 = alloca ptr, align 8
  %4 = alloca i16, align 2
  store ptr %0, ptr %3, align 8
  store i16 %1, ptr %4, align 2
  %5 = load ptr, ptr %3, align 8
  %6 = getelementptr inbounds nuw %"class.clang::Token", ptr %5, i32 0, i32 3
  %7 = load i16, ptr %6, align 8
  %8 = zext i16 %7 to i32
  %9 = load i16, ptr %4, align 2
  %10 = zext i16 %9 to i32
  %11 = icmp eq i32 %8, %10
  ret i1 %11
}

; Function Attrs: mustprogress nounwind uwtable
define linkonce_odr hidden noundef zeroext i8 @_ZNK5clang6format11FormatToken7getTypeEv(ptr noundef nonnull align 8 dereferenceable(305) %0) #0 comdat align 2 {
  %2 = alloca ptr, align 8
  store ptr %0, ptr %2, align 8
  %3 = load ptr, ptr %2, align 8
  %4 = getelementptr inbounds nuw %"struct.clang::format::FormatToken", ptr %3, i32 0, i32 6
  %5 = load i8, ptr %4, align 1
  ret i8 %5
}

; Function Attrs: mustprogress nounwind uwtable
define internal noundef zeroext i1 @"_ZZN5clang6format17WhitespaceManager24alignChainedConditionalsEvENK3$_1clERKNS1_6ChangeE"(ptr noundef nonnull align 1 dereferenceable(1) %0, ptr noundef nonnull align 8 dereferenceable(136) %1) #0 align 2 {
  %3 = alloca ptr, align 8
  %4 = alloca ptr, align 8
  %5 = alloca ptr, align 8
  store ptr %0, ptr %3, align 8
  store ptr %1, ptr %4, align 8
  %6 = load ptr, ptr %4, align 8
  %7 = getelementptr inbounds nuw %"struct.clang::format::WhitespaceManager::Change", ptr %6, i32 0, i32 0
  %8 = load ptr, ptr %7, align 8
  %9 = call noundef ptr @_ZNK5clang6format11FormatToken21getPreviousNonCommentEv(ptr noundef nonnull align 8 dereferenceable(305) %8)
  store ptr %9, ptr %5, align 8
  %10 = load ptr, ptr %4, align 8
  %11 = getelementptr inbounds nuw %"struct.clang::format::WhitespaceManager::Change", ptr %10, i32 0, i32 4
  %12 = load i32, ptr %11, align 8
  %13 = icmp ne i32 %12, 0
  br i1 %13, label %14, label %42

14:                                               ; preds = %2
  %15 = load ptr, ptr %5, align 8
  %16 = icmp ne ptr %15, null
  br i1 %16, label %17, label %42

17:                                               ; preds = %14
  %18 = load ptr, ptr %5, align 8
  %19 = call noundef zeroext i1 @_ZNK5clang6format11FormatToken2isENS0_9TokenTypeE(ptr noundef nonnull align 8 dereferenceable(305) %18, i8 noundef zeroext 17)
  br i1 %19, label %20, label %42

20:                                               ; preds = %17
  %21 = load ptr, ptr %5, align 8
  %22 = call noundef zeroext i1 @_ZNK5clang6format11FormatToken2isENS_3tok9TokenKindE(ptr noundef nonnull align 8 dereferenceable(305) %21, i16 noundef zeroext 62)
  br i1 %22, label %23, label %40

23:                                               ; preds = %20
  %24 = load ptr, ptr %4, align 8
  %25 = getelementptr inbounds nuw %"struct.clang::format::WhitespaceManager::Change", ptr %24, i32 0, i32 0
  %26 = load ptr, ptr %25, align 8
  %27 = getelementptr inbounds nuw %"struct.clang::format::FormatToken", ptr %26, i32 0, i32 29
  %28 = call noundef i64 @_ZNK4llvm15SmallVectorBaseIjE4sizeEv(ptr noundef nonnull align 8 dereferenceable(16) %27)
  %29 = icmp eq i64 %28, 0
  br i1 %29, label %38, label %30

30:                                               ; preds = %23
  %31 = load ptr, ptr %4, align 8
  %32 = getelementptr inbounds nuw %"struct.clang::format::WhitespaceManager::Change", ptr %31, i32 0, i32 0
  %33 = load ptr, ptr %32, align 8
  %34 = getelementptr inbounds nuw %"struct.clang::format::FormatToken", ptr %33, i32 0, i32 29
  %35 = call noundef nonnull align 4 dereferenceable(4) ptr @_ZNK4llvm25SmallVectorTemplateCommonIN5clang4prec5LevelEvE4backEv(ptr noundef nonnull align 8 dereferenceable(16) %34)
  %36 = load i32, ptr %35, align 4
  %37 = icmp ne i32 %36, 3
  br label %38

38:                                               ; preds = %30, %23
  %39 = phi i1 [ true, %23 ], [ %37, %30 ]
  br label %40

40:                                               ; preds = %38, %20
  %41 = phi i1 [ false, %20 ], [ %39, %38 ]
  br label %42

42:                                               ; preds = %40, %17, %14, %2
  %43 = phi i1 [ false, %17 ], [ false, %14 ], [ false, %2 ], [ %41, %40 ]
  ret i1 %43
}

; Function Attrs: mustprogress nounwind uwtable
define linkonce_odr hidden noundef nonnull align 8 dereferenceable(136) ptr @_ZN4llvm25SmallVectorTemplateCommonIN5clang6format17WhitespaceManager6ChangeEvE4backEv(ptr noundef nonnull align 8 dereferenceable(16) %0) #0 comdat align 2 {
  %2 = alloca ptr, align 8
  store ptr %0, ptr %2, align 8
  %3 = load ptr, ptr %2, align 8
  %4 = call noundef ptr @_ZN4llvm25SmallVectorTemplateCommonIN5clang6format17WhitespaceManager6ChangeEvE3endEv(ptr noundef nonnull align 8 dereferenceable(16) %3)
  %5 = getelementptr inbounds %"struct.clang::format::WhitespaceManager::Change", ptr %4, i64 -1
  ret ptr %5
}

; Function Attrs: mustprogress nounwind uwtable
define linkonce_odr hidden noundef zeroext i1 @_ZNK5clang6format11FormatToken2isENS_3tok9TokenKindE(ptr noundef nonnull align 8 dereferenceable(305) %0, i16 noundef zeroext %1) #0 comdat align 2 {
  %3 = alloca ptr, align 8
  %4 = alloca i16, align 2
  store ptr %0, ptr %3, align 8
  store i16 %1, ptr %4, align 2
  %5 = load ptr, ptr %3, align 8
  %6 = getelementptr inbounds nuw %"struct.clang::format::FormatToken", ptr %5, i32 0, i32 0
  %7 = load i16, ptr %4, align 2
  %8 = call noundef zeroext i1 @_ZNK5clang5Token2isENS_3tok9TokenKindE(ptr noundef nonnull align 8 dereferenceable(20) %6, i16 noundef zeroext %7)
  ret i1 %8
}

; Function Attrs: mustprogress nounwind uwtable
define linkonce_odr hidden noundef zeroext i1 @_ZNK5clang6format11FormatToken2isENS0_9TokenTypeE(ptr noundef nonnull align 8 dereferenceable(305) %0, i8 noundef zeroext %1) #0 comdat align 2 {
  %3 = alloca ptr, align 8
  %4 = alloca i8, align 1
  store ptr %0, ptr %3, align 8
  store i8 %1, ptr %4, align 1
  %5 = load ptr, ptr %3, align 8
  %6 = call noundef zeroext i8 @_ZNK5clang6format11FormatToken7getTypeEv(ptr noundef nonnull align 8 dereferenceable(305) %5)
  %7 = zext i8 %6 to i32
  %8 = load i8, ptr %4, align 1
  %9 = zext i8 %8 to i32
  %10 = icmp eq i32 %7, %9
  ret i1 %10
}

; Function Attrs: mustprogress nounwind uwtable
define internal noundef zeroext i1 @"_ZZN5clang6format17WhitespaceManager24alignChainedConditionalsEvENK3$_2clERKNS1_6ChangeE"(ptr noundef nonnull align 8 dereferenceable(8) %0, ptr noundef nonnull align 8 dereferenceable(136) %1) #0 align 2 {
  %3 = alloca ptr, align 8
  %4 = alloca ptr, align 8
  store ptr %0, ptr %3, align 8
  store ptr %1, ptr %4, align 8
  %5 = load ptr, ptr %3, align 8
  %6 = getelementptr inbounds nuw %class.anon.142, ptr %5, i32 0, i32 0
  %7 = load ptr, ptr %6, align 8
  %8 = load ptr, ptr %4, align 8
  %9 = getelementptr inbounds nuw %"struct.clang::format::WhitespaceManager::Change", ptr %8, i32 0, i32 0
  %10 = load ptr, ptr %9, align 8
  %11 = call noundef zeroext i1 @_ZNK5clang6format11FormatToken2isENS0_9TokenTypeE(ptr noundef nonnull align 8 dereferenceable(305) %10, i8 noundef zeroext 17)
  br i1 %11, label %12, label %34

12:                                               ; preds = %2
  %13 = load ptr, ptr %4, align 8
  %14 = getelementptr inbounds nuw %"struct.clang::format::WhitespaceManager::Change", ptr %13, i32 0, i32 0
  %15 = load ptr, ptr %14, align 8
  %16 = call noundef zeroext i1 @_ZNK5clang6format11FormatToken2isENS_3tok9TokenKindE(ptr noundef nonnull align 8 dereferenceable(305) %15, i16 noundef zeroext 61)
  br i1 %16, label %17, label %34

17:                                               ; preds = %12
  %18 = load ptr, ptr %4, align 8
  %19 = getelementptr inbounds nuw %"class.clang::format::WhitespaceManager", ptr %7, i32 0, i32 0
  %20 = call noundef nonnull align 8 dereferenceable(136) ptr @_ZN4llvm25SmallVectorTemplateCommonIN5clang6format17WhitespaceManager6ChangeEvE4backEv(ptr noundef nonnull align 8 dereferenceable(16) %19)
  %21 = icmp ne ptr %18, %20
  br i1 %21, label %22, label %34

22:                                               ; preds = %17
  %23 = load ptr, ptr %4, align 8
  %24 = getelementptr inbounds %"struct.clang::format::WhitespaceManager::Change", ptr %23, i64 1
  %25 = getelementptr inbounds nuw %"struct.clang::format::WhitespaceManager::Change", ptr %24, i32 0, i32 4
  %26 = load i32, ptr %25, align 8
  %27 = icmp eq i32 %26, 0
  br i1 %27, label %28, label %34

28:                                               ; preds = %22
  %29 = load ptr, ptr %4, align 8
  %30 = getelementptr inbounds %"struct.clang::format::WhitespaceManager::Change", ptr %29, i64 1
  %31 = getelementptr inbounds nuw %"struct.clang::format::WhitespaceManager::Change", ptr %30, i32 0, i32 11
  %32 = load i8, ptr %31, align 1
  %33 = trunc i8 %32 to i1
  br i1 %33, label %34, label %37

34:                                               ; preds = %28, %22, %17, %12, %2
  %35 = load ptr, ptr %4, align 8
  %36 = call noundef zeroext i1 @"_ZZN5clang6format17WhitespaceManager24alignChainedConditionalsEvENK3$_1clERKNS1_6ChangeE"(ptr noundef nonnull align 1 dereferenceable(1) @_ZZN5clang6format17WhitespaceManager24alignChainedConditionalsEvE19AlignWrappedOperand, ptr noundef nonnull align 8 dereferenceable(136) %35)
  br label %37

37:                                               ; preds = %34, %28
  %38 = phi i1 [ true, %28 ], [ %36, %34 ]
  ret i1 %38
}