; Function Attrs: mustprogress nounwind uwtable
define internal fastcc noundef zeroext i1 @"_ZZN5clang6format17WhitespaceManager24alignChainedConditionalsEvENK3$_2clERKNS1_6ChangeE"(ptr %.0.val, ptr noundef nonnull readonly align 8 dereferenceable(136) %0) unnamed_addr #0 align 2 {
  %2 = load ptr, ptr %0, align 8
  %3 = getelementptr inbounds nuw i8, ptr %2, i64 67
  %4 = load i8, ptr %3, align 1
  %5 = icmp eq i8 %4, 17
  br i1 %5, label %6, label %23

6:                                                ; preds = %1
  %7 = getelementptr inbounds nuw i8, ptr %2, i64 16
  %8 = load i16, ptr %7, align 8
  %9 = icmp eq i16 %8, 61
  br i1 %9, label %10, label %23

10:                                               ; preds = %6
  %11 = load ptr, ptr %.0.val, align 8
  %12 = tail call noundef i64 @_ZNK4llvm15SmallVectorBaseIjE4sizeEv(ptr noundef nonnull align 8 dereferenceable(16) %.0.val) #18
  %13 = getelementptr inbounds %"struct.clang::format::WhitespaceManager::Change", ptr %11, i64 %12
  %14 = getelementptr inbounds i8, ptr %13, i64 -136
  %.not = icmp eq ptr %0, %14
  br i1 %.not, label %23, label %15

15:                                               ; preds = %10
  %16 = getelementptr inbounds i8, ptr %0, i64 160
  %17 = load i32, ptr %16, align 8
  %18 = icmp eq i32 %17, 0
  br i1 %18, label %19, label %23

19:                                               ; preds = %15
  %20 = getelementptr inbounds i8, ptr %0, i64 241
  %21 = load i8, ptr %20, align 1
  %22 = trunc i8 %21 to i1
  br i1 %22, label %23, label %"_ZZN5clang6format17WhitespaceManager24alignChainedConditionalsEvENK3$_1clERKNS1_6ChangeE.exit"

23:                                               ; preds = %19, %15, %10, %6, %1
  %24 = load ptr, ptr %0, align 8
  br label %25

25:                                               ; preds = %26, %23
  %.pn.i.i = phi ptr [ %24, %23 ], [ %.0.i.i, %26 ]
  %.0.in.i.i = getelementptr inbounds nuw i8, ptr %.pn.i.i, i64 208
  %.0.i.i = load ptr, ptr %.0.in.i.i, align 8
  %.not.i.i = icmp eq ptr %.0.i.i, null
  br i1 %.not.i.i, label %"_ZZN5clang6format17WhitespaceManager24alignChainedConditionalsEvENK3$_1clERKNS1_6ChangeE.exit", label %26

26:                                               ; preds = %25
  %27 = getelementptr inbounds nuw i8, ptr %.0.i.i, i64 16
  %28 = load i16, ptr %27, align 8
  %29 = icmp eq i16 %28, 4
  br i1 %29, label %25, label %_ZNK5clang6format11FormatToken21getPreviousNonCommentEv.exit.i, !llvm.loop !71

_ZNK5clang6format11FormatToken21getPreviousNonCommentEv.exit.i: ; preds = %26
  %30 = getelementptr inbounds nuw i8, ptr %0, i64 24
  %31 = load i32, ptr %30, align 8
  %.not.i = icmp eq i32 %31, 0
  br i1 %.not.i, label %"_ZZN5clang6format17WhitespaceManager24alignChainedConditionalsEvENK3$_1clERKNS1_6ChangeE.exit", label %32

32:                                               ; preds = %_ZNK5clang6format11FormatToken21getPreviousNonCommentEv.exit.i
  %33 = getelementptr inbounds nuw i8, ptr %.0.i.i, i64 67
  %34 = load i8, ptr %33, align 1
  %35 = icmp eq i8 %34, 17
  %36 = icmp eq i16 %28, 62
  %or.cond.i = and i1 %36, %35
  br i1 %or.cond.i, label %37, label %"_ZZN5clang6format17WhitespaceManager24alignChainedConditionalsEvENK3$_1clERKNS1_6ChangeE.exit"

37:                                               ; preds = %32
  %38 = getelementptr inbounds nuw i8, ptr %24, i64 152
  %39 = tail call noundef i64 @_ZNK4llvm15SmallVectorBaseIjE4sizeEv(ptr noundef nonnull align 8 dereferenceable(16) %38) #18
  %40 = icmp eq i64 %39, 0
  br i1 %40, label %"_ZZN5clang6format17WhitespaceManager24alignChainedConditionalsEvENK3$_1clERKNS1_6ChangeE.exit", label %41

41:                                               ; preds = %37
  %42 = load ptr, ptr %0, align 8
  %43 = getelementptr inbounds nuw i8, ptr %42, i64 152
  %44 = load ptr, ptr %43, align 8
  %45 = tail call noundef i64 @_ZNK4llvm15SmallVectorBaseIjE4sizeEv(ptr noundef nonnull align 8 dereferenceable(16) %43) #18
  %46 = getelementptr inbounds i32, ptr %44, i64 %45
  %47 = getelementptr inbounds i8, ptr %46, i64 -4
  %48 = load i32, ptr %47, align 4
  %49 = icmp ne i32 %48, 3
  br label %"_ZZN5clang6format17WhitespaceManager24alignChainedConditionalsEvENK3$_1clERKNS1_6ChangeE.exit"

"_ZZN5clang6format17WhitespaceManager24alignChainedConditionalsEvENK3$_1clERKNS1_6ChangeE.exit": ; preds = %25, %41, %37, %32, %_ZNK5clang6format11FormatToken21getPreviousNonCommentEv.exit.i, %19
  %50 = phi i1 [ true, %19 ], [ false, %32 ], [ false, %_ZNK5clang6format11FormatToken21getPreviousNonCommentEv.exit.i ], [ true, %37 ], [ %49, %41 ], [ false, %25 ]
  ret i1 %50
}